target datalayout = "e-m:e-p270:32:32-p271:32:32-p272:64:64-i64:64-i128:128-f80:128-n8:16:32:64-S128"
target triple = "x86_64-pc-linux-gnu"

%"class.cv::bioinspired::RetinaFilter" = type <{ i8, i8, [2 x i8], i32, i32, [4 x i8], %"class.std::valarray", %"class.std::valarray", %"class.cv::bioinspired::BasicRetinaFilter", %"class.cv::bioinspired::ParvoRetinaFilter", %"class.cv::bioinspired::MagnoRetinaFilter", %"class.cv::bioinspired::RetinaColor", ptr, i8, i8, i8, i8, float, i8, [7 x i8] }>
%"class.std::valarray" = type { i64, ptr }
%"class.cv::bioinspired::BasicRetinaFilter" = type { %"class.cv::bioinspired::TemplateBuffer", %"class.std::valarray", i32, i32, %"class.std::valarray", %"class.std::valarray", %"class.std::valarray", float, float, float, float, float, float, float, float }
%"class.cv::bioinspired::TemplateBuffer" = type { ptr, %"class.std::valarray", i64, i64, i64, i64, i64 }
%"class.cv::bioinspired::ParvoRetinaFilter" = type { ptr, %"class.cv::bioinspired::BasicRetinaFilter", %"class.std::valarray", %"class.std::valarray", %"class.std::valarray", %"class.std::valarray", %"class.std::valarray", %"class.std::valarray", %"class.std::valarray", ptr, ptr }
%"class.cv::bioinspired::MagnoRetinaFilter" = type <{ ptr, %"class.cv::bioinspired::BasicRetinaFilter", %"class.std::valarray", %"class.std::valarray", %"class.std::valarray", %"class.std::valarray", %"class.std::valarray", %"class.std::valarray", %"class.std::valarray", %"class.std::valarray", ptr, ptr, float, [4 x i8] }>
%"class.cv::bioinspired::RetinaColor" = type <{ ptr, %"class.cv::bioinspired::BasicRetinaFilter", i32, i8, [3 x i8], float, [4 x i8], ptr, ptr, %"class.std::valarray.0", %"class.std::valarray", %"class.std::valarray", %"class.std::valarray", %"class.std::valarray", %"class.std::valarray", %"class.std::valarray", %"class.std::valarray", float, float, float, i8, [3 x i8] }>
%"class.std::valarray.0" = type { i64, ptr }

; Function Attrs: inlinehint mustprogress nounwind uwtable
define linkonce_odr hidden noundef nonnull align 4 dereferenceable(4) ptr @_ZNSt8valarrayIfEixEm(ptr noundef nonnull align 8 dereferenceable(16) %0, i64 noundef %1) #6 comdat align 2 {
  %3 = alloca ptr, align 8
  %4 = alloca i64, align 8
  store ptr %0, ptr %3, align 8, !tbaa !38
  store i64 %1, ptr %4, align 8, !tbaa !39
  %5 = load ptr, ptr %3, align 8
  %6 = getelementptr inbounds nuw %"class.std::valarray", ptr %5, i32 0, i32 1
  %7 = load ptr, ptr %6, align 8, !tbaa !41
  %8 = load i64, ptr %4, align 8, !tbaa !39
  %9 = getelementptr inbounds nuw float, ptr %7, i64 %8
  ret ptr %9
}

; Function Attrs: inlinehint mustprogress nounwind uwtable
define linkonce_odr hidden noundef float @_ZN2cv11bioinspired17MagnoRetinaFilter19getTemporalConstantEv(ptr noundef nonnull align 8 dereferenceable(324) %0) #6 comdat align 2 {
  %2 = alloca ptr, align 8
  store ptr %0, ptr %2, align 8, !tbaa !65
  %3 = load ptr, ptr %2, align 8
  %4 = getelementptr inbounds i8, ptr %3, i64 8
  %5 = getelementptr inbounds nuw %"class.cv::bioinspired::BasicRetinaFilter", ptr %4, i32 0, i32 4
  %6 = call noundef nonnull align 4 dereferenceable(4) ptr @_ZNSt8valarrayIfEixEm(ptr noundef nonnull align 8 dereferenceable(16) %5, i64 noundef 2) #3
  %7 = load float, ptr %6, align 4, !tbaa !48
  ret float %7
}

; Function Attrs: inlinehint mustprogress nounwind uwtable
define linkonce_odr hidden noundef float @_ZN2cv11bioinspired17ParvoRetinaFilter25getHcellsTemporalConstantEv(ptr noundef nonnull align 8 dereferenceable(304) %0) #6 comdat align 2 {
  %2 = alloca ptr, align 8
  store ptr %0, ptr %2, align 8, !tbaa !63
  %3 = load ptr, ptr %2, align 8
  %4 = getelementptr inbounds i8, ptr %3, i64 8
  %5 = getelementptr inbounds nuw %"class.cv::bioinspired::BasicRetinaFilter", ptr %4, i32 0, i32 4
  %6 = call noundef nonnull align 4 dereferenceable(4) ptr @_ZNSt8valarrayIfEixEm(ptr noundef nonnull align 8 dereferenceable(16) %5, i64 noundef 5) #3
  %7 = load float, ptr %6, align 4, !tbaa !48
  ret float %7
}

; Function Attrs: inlinehint mustprogress nounwind uwtable
define linkonce_odr hidden noundef float @_ZN2cv11bioinspired17ParvoRetinaFilter33getPhotoreceptorsTemporalConstantEv(ptr noundef nonnull align 8 dereferenceable(304) %0) #6 comdat align 2 {
  %2 = alloca ptr, align 8
  store ptr %0, ptr %2, align 8, !tbaa !63
  %3 = load ptr, ptr %2, align 8
  %4 = getelementptr inbounds i8, ptr %3, i64 8
  %5 = getelementptr inbounds nuw %"class.cv::bioinspired::BasicRetinaFilter", ptr %4, i32 0, i32 4
  %6 = call noundef nonnull align 4 dereferenceable(4) ptr @_ZNSt8valarrayIfEixEm(ptr noundef nonnull align 8 dereferenceable(16) %5, i64 noundef 2) #3
  %7 = load float, ptr %6, align 4, !tbaa !48
  ret float %7
}

; Function Attrs: mustprogress uwtable
define hidden void @_ZN2cv11bioinspired12RetinaFilter19_setInitPeriodCountEv(ptr noundef nonnull align 8 dereferenceable(1217) %0) #4 align 2 {
  %2 = alloca ptr, align 8
  store ptr %0, ptr %2, align 8, !tbaa !3
  %3 = load ptr, ptr %2, align 8
  %4 = getelementptr inbounds nuw %"class.cv::bioinspired::RetinaFilter", ptr %3, i32 0, i32 9
  %5 = call noundef float @_ZN2cv11bioinspired17ParvoRetinaFilter33getPhotoreceptorsTemporalConstantEv(ptr noundef nonnull align 8 dereferenceable(304) %4)
  %6 = getelementptr inbounds nuw %"class.cv::bioinspired::RetinaFilter", ptr %3, i32 0, i32 9
  %7 = call noundef float @_ZN2cv11bioinspired17ParvoRetinaFilter25getHcellsTemporalConstantEv(ptr noundef nonnull align 8 dereferenceable(304) %6)
  %8 = fadd float %5, %7
  %9 = getelementptr inbounds nuw %"class.cv::bioinspired::RetinaFilter", ptr %3, i32 0, i32 10
  %10 = call noundef float @_ZN2cv11bioinspired17MagnoRetinaFilter19getTemporalConstantEv(ptr noundef nonnull align 8 dereferenceable(324) %9)
  %11 = fadd float %8, %10
  %12 = fptoui float %11 to i32
  %13 = getelementptr inbounds nuw %"class.cv::bioinspired::RetinaFilter", ptr %3, i32 0, i32 4
  store i32 %12, ptr %13, align 8, !tbaa !37
  %14 = getelementptr inbounds nuw %"class.cv::bioinspired::RetinaFilter", ptr %3, i32 0, i32 3
  store i32 0, ptr %14, align 4, !tbaa !55
  ret void
}

; Function Attrs: mustprogress nounwind uwtable
define linkonce_odr hidden void @_ZN2cv11bioinspired17BasicRetinaFilter25setV0CompressionParameterEfff(ptr noundef nonnull align 8 dereferenceable(168) %0, float noundef %1, float noundef %2, float noundef %3) #9 comdat align 2 {
  %5 = alloca ptr, align 8
  %6 = alloca float, align 4
  %7 = alloca float, align 4
  %8 = alloca float, align 4
  store ptr %0, ptr %5, align 8, !tbaa !56
  store float %1, ptr %6, align 4, !tbaa !48
  store float %2, ptr %7, align 4, !tbaa !48
  store float %3, ptr %8, align 4, !tbaa !48
  %9 = load ptr, ptr %5, align 8
  %10 = load float, ptr %6, align 4, !tbaa !48
  %11 = load float, ptr %7, align 4, !tbaa !48
  %12 = fmul float %10, %11
  %13 = getelementptr inbounds nuw %"class.cv::bioinspired::BasicRetinaFilter", ptr %9, i32 0, i32 7
  store float %12, ptr %13, align 8, !tbaa !67
  %14 = load float, ptr %6, align 4, !tbaa !48
  %15 = getelementptr inbounds nuw %"class.cv::bioinspired::BasicRetinaFilter", ptr %9, i32 0, i32 10
  store float %14, ptr %15, align 4, !tbaa !68
  %16 = load float, ptr %7, align 4, !tbaa !48
  %17 = load float, ptr %6, align 4, !tbaa !48
  %18 = fsub float 1.000000e+00, %17
  %19 = fmul float %16, %18
  %20 = getelementptr inbounds nuw %"class.cv::bioinspired::BasicRetinaFilter", ptr %9, i32 0, i32 11
  store float %19, ptr %20, align 8, !tbaa !69
  %21 = load float, ptr %7, align 4, !tbaa !48
  %22 = getelementptr inbounds nuw %"class.cv::bioinspired::BasicRetinaFilter", ptr %9, i32 0, i32 8
  store float %21, ptr %22, align 4, !tbaa !70
  ret void
}

; Function Attrs: mustprogress uwtable
define hidden void @_ZN2cv11bioinspired12RetinaFilter19setGlobalParametersEfffffffffbbfff(ptr noundef nonnull align 8 dereferenceable(1217) %0, float noundef %1, float noundef %2, float noundef %3, float noundef %4, float noundef %5, float noundef %6, float noundef %7, float noundef %8, float noundef %9, i1 noundef zeroext %10, i1 noundef zeroext %11, float noundef %12, float noundef %13, float noundef %14) #4 align 2 {
  %16 = alloca ptr, align 8
  %17 = alloca float, align 4
  %18 = alloca float, align 4
  %19 = alloca float, align 4
  %20 = alloca float, align 4
  %21 = alloca float, align 4
  %22 = alloca float, align 4
  %23 = alloca float, align 4
  %24 = alloca float, align 4
  %25 = alloca float, align 4
  %26 = alloca i8, align 1
  %27 = alloca i8, align 1
  %28 = alloca float, align 4
  %29 = alloca float, align 4
  %30 = alloca float, align 4
  store ptr %0, ptr %16, align 8, !tbaa !3
  store float %1, ptr %17, align 4, !tbaa !48
  store float %2, ptr %18, align 4, !tbaa !48
  store float %3, ptr %19, align 4, !tbaa !48
  store float %4, ptr %20, align 4, !tbaa !48
  store float %5, ptr %21, align 4, !tbaa !48
  store float %6, ptr %22, align 4, !tbaa !48
  store float %7, ptr %23, align 4, !tbaa !48
  store float %8, ptr %24, align 4, !tbaa !48
  store float %9, ptr %25, align 4, !tbaa !48
  %31 = zext i1 %10 to i8
  store i8 %31, ptr %26, align 1, !tbaa !10
  %32 = zext i1 %11 to i8
  store i8 %32, ptr %27, align 1, !tbaa !10
  store float %12, ptr %28, align 4, !tbaa !48
  store float %13, ptr %29, align 4, !tbaa !48
  store float %14, ptr %30, align 4, !tbaa !48
  %33 = load ptr, ptr %16, align 8
  %34 = load i8, ptr %26, align 1, !tbaa !10, !range !14, !noundef !15
  %35 = trunc i8 %34 to i1
  %36 = getelementptr inbounds nuw %"class.cv::bioinspired::RetinaFilter", ptr %33, i32 0, i32 14
  %37 = zext i1 %35 to i8
  store i8 %37, ptr %36, align 1, !tbaa !52
  %38 = load i8, ptr %27, align 1, !tbaa !10, !range !14, !noundef !15
  %39 = trunc i8 %38 to i1
  %40 = getelementptr inbounds nuw %"class.cv::bioinspired::RetinaFilter", ptr %33, i32 0, i32 15
  %41 = zext i1 %39 to i8
  store i8 %41, ptr %40, align 2, !tbaa !53
  %42 = load float, ptr %28, align 4, !tbaa !48
  %43 = getelementptr inbounds nuw %"class.cv::bioinspired::RetinaFilter", ptr %33, i32 0, i32 17
  store float %42, ptr %43, align 4, !tbaa !54
  %44 = getelementptr inbounds nuw %"class.cv::bioinspired::RetinaFilter", ptr %33, i32 0, i32 8
  %45 = load float, ptr %29, align 4, !tbaa !48
  %46 = load float, ptr %30, align 4, !tbaa !48
  call void @_ZN2cv11bioinspired17BasicRetinaFilter25setV0CompressionParameterEfff(ptr noundef nonnull align 8 dereferenceable(168) %44, float noundef 0x3FECCCCCC0000000, float noundef %45, float noundef %46)
  %47 = getelementptr inbounds nuw %"class.cv::bioinspired::RetinaFilter", ptr %33, i32 0, i32 8
  call void @_ZN2cv11bioinspired17BasicRetinaFilter21setLPfilterParametersEfffj(ptr noundef nonnull align 8 dereferenceable(168) %47, float noundef 1.000000e+01, float noundef 0.000000e+00, float noundef 1.500000e+00, i32 noundef 1)
  %48 = getelementptr inbounds nuw %"class.cv::bioinspired::RetinaFilter", ptr %33, i32 0, i32 8
  call void @_ZN2cv11bioinspired17BasicRetinaFilter21setLPfilterParametersEfffj(ptr noundef nonnull align 8 dereferenceable(168) %48, float noundef 1.000000e+01, float noundef 0.000000e+00, float noundef 3.000000e+00, i32 noundef 2)
  %49 = getelementptr inbounds nuw %"class.cv::bioinspired::RetinaFilter", ptr %33, i32 0, i32 8
  call void @_ZN2cv11bioinspired17BasicRetinaFilter21setLPfilterParametersEfffj(ptr noundef nonnull align 8 dereferenceable(168) %49, float noundef 0.000000e+00, float noundef 0.000000e+00, float noundef 1.000000e+01, i32 noundef 3)
  %50 = getelementptr inbounds nuw %"class.cv::bioinspired::RetinaFilter", ptr %33, i32 0, i32 9
  %51 = load float, ptr %18, align 4, !tbaa !48
  %52 = load float, ptr %17, align 4, !tbaa !48
  %53 = load float, ptr %19, align 4, !tbaa !48
  %54 = load float, ptr %21, align 4, !tbaa !48
  %55 = load float, ptr %20, align 4, !tbaa !48
  call void @_ZN2cv11bioinspired17ParvoRetinaFilter31setOPLandParvoFiltersParametersEffffff(ptr noundef nonnull align 8 dereferenceable(304) %50, float noundef 0.000000e+00, float noundef %51, float noundef %52, float noundef %53, float noundef %54, float noundef %55)
  %56 = getelementptr inbounds nuw %"class.cv::bioinspired::RetinaFilter", ptr %33, i32 0, i32 9
  %57 = getelementptr inbounds i8, ptr %56, i64 8
  %58 = load float, ptr %29, align 4, !tbaa !48
  %59 = load float, ptr %30, align 4, !tbaa !48
  call void @_ZN2cv11bioinspired17BasicRetinaFilter25setV0CompressionParameterEfff(ptr noundef nonnull align 8 dereferenceable(168) %57, float noundef 0x3FECCCCCC0000000, float noundef %58, float noundef %59)
  %60 = getelementptr inbounds nuw %"class.cv::bioinspired::RetinaFilter", ptr %33, i32 0, i32 10
  %61 = load float, ptr %23, align 4, !tbaa !48
  %62 = load float, ptr %24, align 4, !tbaa !48
  %63 = load float, ptr %22, align 4, !tbaa !48
  %64 = load float, ptr %25, align 4, !tbaa !48
  %65 = load float, ptr %22, align 4, !tbaa !48
  %66 = fmul float 2.000000e+00, %65
  call void @_ZN2cv11bioinspired17MagnoRetinaFilter20setCoefficientsTableEffffff(ptr noundef nonnull align 8 dereferenceable(324) %60, float noundef %61, float noundef %62, float noundef %63, float noundef %64, float noundef 0.000000e+00, float noundef %66)
  %67 = getelementptr inbounds nuw %"class.cv::bioinspired::RetinaFilter", ptr %33, i32 0, i32 10
  %68 = getelementptr inbounds i8, ptr %67, i64 8
  %69 = load float, ptr %29, align 4, !tbaa !48
  %70 = load float, ptr %30, align 4, !tbaa !48
  call void @_ZN2cv11bioinspired17BasicRetinaFilter25setV0CompressionParameterEfff(ptr noundef nonnull align 8 dereferenceable(168) %68, float noundef 0x3FE6666660000000, float noundef %69, float noundef %70)
  call void @_ZN2cv11bioinspired12RetinaFilter19_setInitPeriodCountEv(ptr noundef nonnull align 8 dereferenceable(1217) %33)
  ret void
}