; Function Attrs: mustprogress uwtable
define hidden void @_ZN2cv11bioinspired12RetinaFilter19setGlobalParametersEfffffffffbbfff(ptr noundef nonnull align 8 dereferenceable(1217) initializes((184, 192), (196, 204), (1209, 1211), (1212, 1216)) %0, float noundef %1, float noundef %2, float noundef %3, float noundef %4, float noundef %5, float noundef %6, float noundef %7, float noundef %8, float noundef %9, i1 noundef zeroext %10, i1 noundef zeroext %11, float noundef %12, float noundef %13, float noundef %14) local_unnamed_addr #3 align 2 {
  %16 = zext i1 %10 to i8
  %17 = zext i1 %11 to i8
  %18 = getelementptr inbounds nuw i8, ptr %0, i64 1209
  store i8 %16, ptr %18, align 1, !tbaa !52
  %19 = getelementptr inbounds nuw i8, ptr %0, i64 1210
  store i8 %17, ptr %19, align 2, !tbaa !53
  %20 = getelementptr inbounds nuw i8, ptr %0, i64 1212
  store float %12, ptr %20, align 4, !tbaa !54
  %21 = getelementptr inbounds nuw i8, ptr %0, i64 48
  %22 = fmul float %13, 0x3FECCCCCC0000000
  %23 = getelementptr inbounds nuw i8, ptr %0, i64 184
  store float %22, ptr %23, align 8, !tbaa !55
  %24 = getelementptr inbounds nuw i8, ptr %0, i64 196
  store float 0x3FECCCCCC0000000, ptr %24, align 4, !tbaa !56
  %25 = fmul float %13, 0x3FB9999A00000000
  %26 = getelementptr inbounds nuw i8, ptr %0, i64 200
  store float %25, ptr %26, align 8, !tbaa !57
  %27 = getelementptr inbounds nuw i8, ptr %0, i64 188
  store float %13, ptr %27, align 4, !tbaa !58
  tail call void @_ZN2cv11bioinspired17BasicRetinaFilter21setLPfilterParametersEfffj(ptr noundef nonnull align 8 dereferenceable(168) %21, float noundef 1.000000e+01, float noundef 0.000000e+00, float noundef 1.500000e+00, i32 noundef 1)
  tail call void @_ZN2cv11bioinspired17BasicRetinaFilter21setLPfilterParametersEfffj(ptr noundef nonnull align 8 dereferenceable(168) %21, float noundef 1.000000e+01, float noundef 0.000000e+00, float noundef 3.000000e+00, i32 noundef 2)
  tail call void @_ZN2cv11bioinspired17BasicRetinaFilter21setLPfilterParametersEfffj(ptr noundef nonnull align 8 dereferenceable(168) %21, float noundef 0.000000e+00, float noundef 0.000000e+00, float noundef 1.000000e+01, i32 noundef 3)
  %28 = getelementptr inbounds nuw i8, ptr %0, i64 216
  tail call void @_ZN2cv11bioinspired17ParvoRetinaFilter31setOPLandParvoFiltersParametersEffffff(ptr noundef nonnull align 8 dereferenceable(304) %28, float noundef 0.000000e+00, float noundef %2, float noundef %1, float noundef %3, float noundef %5, float noundef %4)
  %29 = getelementptr inbounds nuw i8, ptr %0, i64 360
  store float %22, ptr %29, align 8, !tbaa !55
  %30 = getelementptr inbounds nuw i8, ptr %0, i64 372
  store float 0x3FECCCCCC0000000, ptr %30, align 4, !tbaa !56
  %31 = getelementptr inbounds nuw i8, ptr %0, i64 376
  store float %25, ptr %31, align 8, !tbaa !57
  %32 = getelementptr inbounds nuw i8, ptr %0, i64 364
  store float %13, ptr %32, align 4, !tbaa !58
  %33 = getelementptr inbounds nuw i8, ptr %0, i64 520
  %34 = fmul float %6, 2.000000e+00
  tail call void @_ZN2cv11bioinspired17MagnoRetinaFilter20setCoefficientsTableEffffff(ptr noundef nonnull align 8 dereferenceable(324) %33, float noundef %7, float noundef %8, float noundef %6, float noundef %9, float noundef 0.000000e+00, float noundef %34)
  %35 = fmul float %13, 0x3FE6666660000000
  %36 = getelementptr inbounds nuw i8, ptr %0, i64 664
  store float %35, ptr %36, align 8, !tbaa !55
  %37 = getelementptr inbounds nuw i8, ptr %0, i64 676
  store float 0x3FE6666660000000, ptr %37, align 4, !tbaa !56
  %38 = fmul float %13, 0x3FD3333340000000
  %39 = getelementptr inbounds nuw i8, ptr %0, i64 680
  store float %38, ptr %39, align 8, !tbaa !57
  %40 = getelementptr inbounds nuw i8, ptr %0, i64 668
  store float %13, ptr %40, align 4, !tbaa !58
  %41 = getelementptr inbounds nuw i8, ptr %0, i64 320
  %42 = load ptr, ptr %41, align 8, !tbaa !10
  %43 = getelementptr inbounds nuw i8, ptr %42, i64 8
  %44 = load float, ptr %43, align 4, !tbaa !61
  %45 = getelementptr inbounds nuw i8, ptr %42, i64 20
  %46 = load float, ptr %45, align 4, !tbaa !61
  %47 = fadd float %44, %46
  %48 = getelementptr inbounds nuw i8, ptr %0, i64 624
  %49 = load ptr, ptr %48, align 8, !tbaa !10
  %50 = getelementptr inbounds nuw i8, ptr %49, i64 8
  %51 = load float, ptr %50, align 4, !tbaa !61
  %52 = fadd float %47, %51
  %53 = fptoui float %52 to i32
  %54 = getelementptr inbounds nuw i8, ptr %0, i64 8
  store i32 %53, ptr %54, align 8, !tbaa !60
  %55 = getelementptr inbounds nuw i8, ptr %0, i64 4
  store i32 0, ptr %55, align 4, !tbaa !59
  ret void
}